target datalayout = "e-m:e-p270:32:32-p271:32:32-p272:64:64-i64:64-i128:128-f80:128-n8:16:32:64-S128"
target triple = "x86_64-pc-linux-gnu"

%struct.HeapTupleData = type { i32, %struct.ItemPointerData, i32, ptr }
%struct.ItemPointerData = type { %struct.BlockIdData, i16 }
%struct.BlockIdData = type { i16, i16 }
%struct.ScanKeyData = type { i32, i16, i16, i32, i32, %struct.FmgrInfo, i64 }
%struct.FmgrInfo = type { ptr, i32, i16, i8, i8, i8, ptr, ptr, ptr }

@CurrentExtensionObject = dso_local global i32 0, align 4
@.str.1 = private unnamed_addr constant [12 x i8] c"extension.c\00", align 1
@.str.9 = private unnamed_addr constant [56 x i8] c"cannot drop extension \22%s\22 because it is being modified\00", align 1
@__func__.RemoveExtensionById = private unnamed_addr constant [20 x i8] c"RemoveExtensionById\00", align 1

; Function Attrs: inlinehint nounwind uwtable
define internal i64 @ObjectIdGetDatum(i32 noundef %0) #3 {
  %2 = alloca i32, align 4
  store i32 %0, ptr %2, align 4
  %3 = load i32, ptr %2, align 4
  %4 = zext i32 %3 to i64
  ret i64 %4
}

; Function Attrs: nounwind uwtable
define dso_local void @RemoveExtensionById(i32 noundef %0) #0 {
  %2 = alloca i32, align 4
  %3 = alloca ptr, align 8
  %4 = alloca ptr, align 8
  %5 = alloca ptr, align 8
  %6 = alloca [1 x %struct.ScanKeyData], align 16
  store i32 %0, ptr %2, align 4
  call void @llvm.lifetime.start.p0(i64 8, ptr %3) #12
  call void @llvm.lifetime.start.p0(i64 8, ptr %4) #12
  call void @llvm.lifetime.start.p0(i64 8, ptr %5) #12
  call void @llvm.lifetime.start.p0(i64 72, ptr %6) #12
  %7 = load i32, ptr %2, align 4
  %8 = load i32, ptr @CurrentExtensionObject, align 4
  %9 = icmp eq i32 %7, %8
  br i1 %9, label %10, label %24

10:                                               ; preds = %1
  br label %11

11:                                               ; preds = %10
  br i1 true, label %12, label %14

12:                                               ; preds = %11
  %13 = call zeroext i1 @errstart_cold(i32 noundef 21, ptr noundef null) #13
  br i1 %13, label %16, label %21

14:                                               ; preds = %11
  %15 = call zeroext i1 @errstart(i32 noundef 21, ptr noundef null)
  br i1 %15, label %16, label %21

16:                                               ; preds = %14, %12
  %17 = call i32 @errcode(i32 noundef 325)
  %18 = load i32, ptr %2, align 4
  %19 = call ptr @get_extension_name(i32 noundef %18)
  %20 = call i32 (ptr, ...) @errmsg(ptr noundef @.str.9, ptr noundef %19)
  call void @errfinish(ptr noundef @.str.1, i32 noundef 2087, ptr noundef @__func__.RemoveExtensionById)
  br label %21

21:                                               ; preds = %16, %14, %12
  unreachable

22:                                               ; No predecessors!
  br label %23

23:                                               ; preds = %22
  br label %24

24:                                               ; preds = %23, %1
  %25 = call ptr @table_open(i32 noundef 3079, i32 noundef 3)
  store ptr %25, ptr %3, align 8
  %26 = getelementptr inbounds [1 x %struct.ScanKeyData], ptr %6, i64 0, i64 0
  %27 = load i32, ptr %2, align 4
  %28 = call i64 @ObjectIdGetDatum(i32 noundef %27)
  call void @ScanKeyInit(ptr noundef %26, i16 noundef signext 1, i16 noundef zeroext 3, i32 noundef 184, i64 noundef %28)
  %29 = load ptr, ptr %3, align 8
  %30 = getelementptr inbounds [1 x %struct.ScanKeyData], ptr %6, i64 0, i64 0
  %31 = call ptr @systable_beginscan(ptr noundef %29, i32 noundef 3080, i1 noundef zeroext true, ptr noundef null, i32 noundef 1, ptr noundef %30)
  store ptr %31, ptr %4, align 8
  %32 = load ptr, ptr %4, align 8
  %33 = call ptr @systable_getnext(ptr noundef %32)
  store ptr %33, ptr %5, align 8
  %34 = load ptr, ptr %5, align 8
  %35 = icmp ne ptr %34, null
  br i1 %35, label %36, label %40

36:                                               ; preds = %24
  %37 = load ptr, ptr %3, align 8
  %38 = load ptr, ptr %5, align 8
  %39 = getelementptr inbounds nuw %struct.HeapTupleData, ptr %38, i32 0, i32 1
  call void @CatalogTupleDelete(ptr noundef %37, ptr noundef %39)
  br label %40

40:                                               ; preds = %36, %24
  %41 = load ptr, ptr %4, align 8
  call void @systable_endscan(ptr noundef %41)
  %42 = load ptr, ptr %3, align 8
  call void @table_close(ptr noundef %42, i32 noundef 3)
  call void @llvm.lifetime.end.p0(i64 72, ptr %6) #12
  call void @llvm.lifetime.end.p0(i64 8, ptr %5) #12
  call void @llvm.lifetime.end.p0(i64 8, ptr %4) #12
  call void @llvm.lifetime.end.p0(i64 8, ptr %3) #12
  ret void
}