; Function Attrs: nounwind uwtable
define dso_local void @RemoveExtensionById(i32 noundef %0) local_unnamed_addr #0 {
  %2 = alloca [1 x %struct.ScanKeyData], align 16
  call void @llvm.lifetime.start.p0(i64 72, ptr nonnull %2) #15
  %3 = load i32, ptr @CurrentExtensionObject, align 4
  %4 = icmp eq i32 %0, %3
  br i1 %4, label %5, label %10

5:                                                ; preds = %1
  %6 = tail call zeroext i1 @errstart_cold(i32 noundef 21, ptr noundef null) #16
  tail call void @llvm.assume(i1 %6)
  %7 = tail call i32 @errcode(i32 noundef 325) #15
  %8 = tail call ptr @get_extension_name(i32 noundef %0)
  %9 = tail call i32 (ptr, ...) @errmsg(ptr noundef nonnull @.str.9, ptr noundef %8) #15
  tail call void @errfinish(ptr noundef nonnull @.str.1, i32 noundef 2087, ptr noundef nonnull @__func__.RemoveExtensionById) #15
  unreachable

10:                                               ; preds = %1
  %11 = tail call ptr @table_open(i32 noundef 3079, i32 noundef 3) #15
  %12 = zext i32 %0 to i64
  call void @ScanKeyInit(ptr noundef nonnull %2, i16 noundef signext 1, i16 noundef zeroext 3, i32 noundef 184, i64 noundef %12) #15
  %13 = call ptr @systable_beginscan(ptr noundef %11, i32 noundef 3080, i1 noundef zeroext true, ptr noundef null, i32 noundef 1, ptr noundef nonnull %2) #15
  %14 = call ptr @systable_getnext(ptr noundef %13) #15
  %.not = icmp eq ptr %14, null
  br i1 %.not, label %17, label %15

15:                                               ; preds = %10
  %16 = getelementptr inbounds nuw i8, ptr %14, i64 4
  call void @CatalogTupleDelete(ptr noundef %11, ptr noundef nonnull %16) #15
  br label %17

17:                                               ; preds = %15, %10
  call void @systable_endscan(ptr noundef %13) #15
  call void @table_close(ptr noundef %11, i32 noundef 3) #15
  call void @llvm.lifetime.end.p0(i64 72, ptr nonnull %2) #15
  ret void
}